; ModuleID = '31/247.c'
source_filename = "31/247.c"
target datalayout = "e-m:e-p270:32:32-p271:32:32-p272:64:64-i64:64-f80:128-n8:16:32:64-S128"
target triple = "x86_64-pc-linux-gnu"

%struct.student = type { [20 x i8], [20 x i8], i8, i32, float, [30 x i8], %struct.student* }

@n = common dso_local global i32 0, align 4
@.str = private unnamed_addr constant [3 x i8] c"%s\00", align 1
@.str.1 = private unnamed_addr constant [4 x i8] c"end\00", align 1
@.str.2 = private unnamed_addr constant [15 x i8] c"%s %c %d %f %s\00", align 1
@.str.3 = private unnamed_addr constant [19 x i8] c"%s %s %c %d %g %s\0A\00", align 1

; Function Attrs: noinline nounwind uwtable
define dso_local %struct.student* @creat() #0 {
  %1 = alloca %struct.student*, align 8
  %2 = alloca %struct.student*, align 8
  %3 = alloca %struct.student*, align 8
  %4 = alloca i32, align 4
  store i32 0, i32* @n, align 4
  %5 = call noalias i8* @malloc(i64 100) #4
  %6 = bitcast i8* %5 to %struct.student*
  store %struct.student* %6, %struct.student** %3, align 8
  store %struct.student* %6, %struct.student** %2, align 8
  store %struct.student* null, %struct.student** %1, align 8
  %7 = load %struct.student*, %struct.student** %2, align 8
  %8 = getelementptr inbounds %struct.student, %struct.student* %7, i32 0, i32 0
  %9 = getelementptr inbounds [20 x i8], [20 x i8]* %8, i64 0, i64 0
  %10 = call i32 (i8*, ...) @__isoc99_scanf(i8* getelementptr inbounds ([3 x i8], [3 x i8]* @.str, i64 0, i64 0), i8* %9)
  store i32 0, i32* %4, align 4
  br label %11

11:                                               ; preds = %51, %0
  %12 = load %struct.student*, %struct.student** %2, align 8
  %13 = getelementptr inbounds %struct.student, %struct.student* %12, i32 0, i32 0
  %14 = getelementptr inbounds [20 x i8], [20 x i8]* %13, i64 0, i64 0
  %15 = call i32 @strcmp(i8* %14, i8* getelementptr inbounds ([4 x i8], [4 x i8]* @.str.1, i64 0, i64 0)) #5
  %16 = icmp ne i32 %15, 0
  br i1 %16, label %17, label %45

17:                                               ; preds = %11
  %18 = load %struct.student*, %struct.student** %2, align 8
  %19 = getelementptr inbounds %struct.student, %struct.student* %18, i32 0, i32 1
  %20 = getelementptr inbounds [20 x i8], [20 x i8]* %19, i64 0, i64 0
  %21 = load %struct.student*, %struct.student** %2, align 8
  %22 = getelementptr inbounds %struct.student, %struct.student* %21, i32 0, i32 2
  %23 = load %struct.student*, %struct.student** %2, align 8
  %24 = getelementptr inbounds %struct.student, %struct.student* %23, i32 0, i32 3
  %25 = load %struct.student*, %struct.student** %2, align 8
  %26 = getelementptr inbounds %struct.student, %struct.student* %25, i32 0, i32 4
  %27 = load %struct.student*, %struct.student** %2, align 8
  %28 = getelementptr inbounds %struct.student, %struct.student* %27, i32 0, i32 5
  %29 = getelementptr inbounds [30 x i8], [30 x i8]* %28, i64 0, i64 0
  %30 = call i32 (i8*, ...) @__isoc99_scanf(i8* getelementptr inbounds ([15 x i8], [15 x i8]* @.str.2, i64 0, i64 0), i8* %20, i8* %22, i32* %24, float* %26, i8* %29)
  %31 = load i32, i32* @n, align 4
  %32 = add nsw i32 %31, 1
  store i32 %32, i32* @n, align 4
  %33 = load i32, i32* @n, align 4
  %34 = icmp eq i32 %33, 1
  br i1 %34, label %35, label %37

35:                                               ; preds = %17
  %36 = load %struct.student*, %struct.student** %2, align 8
  store %struct.student* %36, %struct.student** %1, align 8
  br label %41

37:                                               ; preds = %17
  %38 = load %struct.student*, %struct.student** %2, align 8
  %39 = load %struct.student*, %struct.student** %3, align 8
  %40 = getelementptr inbounds %struct.student, %struct.student* %39, i32 0, i32 6
  store %struct.student* %38, %struct.student** %40, align 8
  br label %41

41:                                               ; preds = %37, %35
  %42 = load %struct.student*, %struct.student** %2, align 8
  store %struct.student* %42, %struct.student** %3, align 8
  %43 = call noalias i8* @malloc(i64 100) #4
  %44 = bitcast i8* %43 to %struct.student*
  store %struct.student* %44, %struct.student** %2, align 8
  br label %46

45:                                               ; preds = %11
  br label %54

46:                                               ; preds = %41
  %47 = load %struct.student*, %struct.student** %2, align 8
  %48 = getelementptr inbounds %struct.student, %struct.student* %47, i32 0, i32 0
  %49 = getelementptr inbounds [20 x i8], [20 x i8]* %48, i64 0, i64 0
  %50 = call i32 (i8*, ...) @__isoc99_scanf(i8* getelementptr inbounds ([3 x i8], [3 x i8]* @.str, i64 0, i64 0), i8* %49)
  br label %51

51:                                               ; preds = %46
  %52 = load i32, i32* %4, align 4
  %53 = add nsw i32 %52, 1
  store i32 %53, i32* %4, align 4
  br label %11

54:                                               ; preds = %45
  %55 = load %struct.student*, %struct.student** %3, align 8
  %56 = getelementptr inbounds %struct.student, %struct.student* %55, i32 0, i32 6
  store %struct.student* null, %struct.student** %56, align 8
  %57 = load %struct.student*, %struct.student** %1, align 8
  ret %struct.student* %57
}

; Function Attrs: nounwind
declare dso_local noalias i8* @malloc(i64) #1

declare dso_local i32 @__isoc99_scanf(i8*, ...) #2

; Function Attrs: nounwind readonly
declare dso_local i32 @strcmp(i8*, i8*) #3

; Function Attrs: noinline nounwind uwtable
define dso_local %struct.student* @del(%struct.student* %0, i8* %1) #0 {
  %3 = alloca %struct.student*, align 8
  %4 = alloca i8*, align 8
  %5 = alloca %struct.student*, align 8
  %6 = alloca %struct.student*, align 8
  store %struct.student* %0, %struct.student** %3, align 8
  store i8* %1, i8** %4, align 8
  %7 = load %struct.student*, %struct.student** %3, align 8
  store %struct.student* %7, %struct.student** %5, align 8
  br label %8

8:                                                ; preds = %22, %2
  %9 = load i8*, i8** %4, align 8
  %10 = load %struct.student*, %struct.student** %5, align 8
  %11 = getelementptr inbounds %struct.student, %struct.student* %10, i32 0, i32 0
  %12 = getelementptr inbounds [20 x i8], [20 x i8]* %11, i64 0, i64 0
  %13 = call i32 @strcmp(i8* %9, i8* %12) #5
  %14 = icmp ne i32 %13, 0
  br i1 %14, label %15, label %20

15:                                               ; preds = %8
  %16 = load %struct.student*, %struct.student** %5, align 8
  %17 = getelementptr inbounds %struct.student, %struct.student* %16, i32 0, i32 6
  %18 = load %struct.student*, %struct.student** %17, align 8
  %19 = icmp ne %struct.student* %18, null
  br label %20

20:                                               ; preds = %15, %8
  %21 = phi i1 [ false, %8 ], [ %19, %15 ]
  br i1 %21, label %22, label %27

22:                                               ; preds = %20
  %23 = load %struct.student*, %struct.student** %5, align 8
  store %struct.student* %23, %struct.student** %6, align 8
  %24 = load %struct.student*, %struct.student** %5, align 8
  %25 = getelementptr inbounds %struct.student, %struct.student* %24, i32 0, i32 6
  %26 = load %struct.student*, %struct.student** %25, align 8
  store %struct.student* %26, %struct.student** %5, align 8
  br label %8

27:                                               ; preds = %20
  %28 = load i8*, i8** %4, align 8
  %29 = load %struct.student*, %struct.student** %5, align 8
  %30 = getelementptr inbounds %struct.student, %struct.student* %29, i32 0, i32 0
  %31 = getelementptr inbounds [20 x i8], [20 x i8]* %30, i64 0, i64 0
  %32 = call i32 @strcmp(i8* %28, i8* %31) #5
  %33 = icmp eq i32 %32, 0
  br i1 %33, label %34, label %51

34:                                               ; preds = %27
  %35 = load %struct.student*, %struct.student** %5, align 8
  %36 = load %struct.student*, %struct.student** %3, align 8
  %37 = icmp eq %struct.student* %35, %36
  br i1 %37, label %38, label %42

38:                                               ; preds = %34
  %39 = load %struct.student*, %struct.student** %5, align 8
  %40 = getelementptr inbounds %struct.student, %struct.student* %39, i32 0, i32 6
  %41 = load %struct.student*, %struct.student** %40, align 8
  store %struct.student* %41, %struct.student** %3, align 8
  br label %48

42:                                               ; preds = %34
  %43 = load %struct.student*, %struct.student** %5, align 8
  %44 = getelementptr inbounds %struct.student, %struct.student* %43, i32 0, i32 6
  %45 = load %struct.student*, %struct.student** %44, align 8
  %46 = load %struct.student*, %struct.student** %6, align 8
  %47 = getelementptr inbounds %struct.student, %struct.student* %46, i32 0, i32 6
  store %struct.student* %45, %struct.student** %47, align 8
  br label %48

48:                                               ; preds = %42, %38
  %49 = load i32, i32* @n, align 4
  %50 = sub nsw i32 %49, 1
  store i32 %50, i32* @n, align 4
  br label %51

51:                                               ; preds = %48, %27
  %52 = load %struct.student*, %struct.student** %3, align 8
  ret %struct.student* %52
}

; Function Attrs: noinline nounwind uwtable
define dso_local void @main() #0 {
  %1 = alloca %struct.student*, align 8
  %2 = alloca %struct.student*, align 8
  %3 = call %struct.student* @creat()
  store %struct.student* %3, %struct.student** %1, align 8
  br label %4

4:                                                ; preds = %18, %0
  %5 = load %struct.student*, %struct.student** %1, align 8
  %6 = icmp ne %struct.student* %5, null
  br i1 %6, label %7, label %45

7:                                                ; preds = %4
  %8 = load %struct.student*, %struct.student** %1, align 8
  store %struct.student* %8, %struct.student** %2, align 8
  br label %9

9:                                                ; preds = %14, %7
  %10 = load %struct.student*, %struct.student** %2, align 8
  %11 = getelementptr inbounds %struct.student, %struct.student* %10, i32 0, i32 6
  %12 = load %struct.student*, %struct.student** %11, align 8
  %13 = icmp ne %struct.student* %12, null
  br i1 %13, label %14, label %18

14:                                               ; preds = %9
  %15 = load %struct.student*, %struct.student** %2, align 8
  %16 = getelementptr inbounds %struct.student, %struct.student* %15, i32 0, i32 6
  %17 = load %struct.student*, %struct.student** %16, align 8
  store %struct.student* %17, %struct.student** %2, align 8
  br label %9

18:                                               ; preds = %9
  %19 = load %struct.student*, %struct.student** %2, align 8
  %20 = getelementptr inbounds %struct.student, %struct.student* %19, i32 0, i32 0
  %21 = getelementptr inbounds [20 x i8], [20 x i8]* %20, i64 0, i64 0
  %22 = load %struct.student*, %struct.student** %2, align 8
  %23 = getelementptr inbounds %struct.student, %struct.student* %22, i32 0, i32 1
  %24 = getelementptr inbounds [20 x i8], [20 x i8]* %23, i64 0, i64 0
  %25 = load %struct.student*, %struct.student** %2, align 8
  %26 = getelementptr inbounds %struct.student, %struct.student* %25, i32 0, i32 2
  %27 = load i8, i8* %26, align 8
  %28 = sext i8 %27 to i32
  %29 = load %struct.student*, %struct.student** %2, align 8
  %30 = getelementptr inbounds %struct.student, %struct.student* %29, i32 0, i32 3
  %31 = load i32, i32* %30, align 4
  %32 = load %struct.student*, %struct.student** %2, align 8
  %33 = getelementptr inbounds %struct.student, %struct.student* %32, i32 0, i32 4
  %34 = load float, float* %33, align 8
  %35 = fpext float %34 to double
  %36 = load %struct.student*, %struct.student** %2, align 8
  %37 = getelementptr inbounds %struct.student, %struct.student* %36, i32 0, i32 5
  %38 = getelementptr inbounds [30 x i8], [30 x i8]* %37, i64 0, i64 0
  %39 = call i32 (i8*, ...) @printf(i8* getelementptr inbounds ([19 x i8], [19 x i8]* @.str.3, i64 0, i64 0), i8* %21, i8* %24, i32 %28, i32 %31, double %35, i8* %38)
  %40 = load %struct.student*, %struct.student** %1, align 8
  %41 = load %struct.student*, %struct.student** %2, align 8
  %42 = getelementptr inbounds %struct.student, %struct.student* %41, i32 0, i32 0
  %43 = getelementptr inbounds [20 x i8], [20 x i8]* %42, i64 0, i64 0
  %44 = call %struct.student* @del(%struct.student* %40, i8* %43)
  store %struct.student* %44, %struct.student** %1, align 8
  br label %4

45:                                               ; preds = %4
  ret void
}

declare dso_local i32 @printf(i8*, ...) #2


!llvm.module.flags = !{!0}
!llvm.ident = !{!1}

!0 = !{i32 1, !"wchar_size", i32 4}
!1 = !{!"clang version 10.0.0-4ubuntu1 "}
